target datalayout = "e-m:e-p270:32:32-p271:32:32-p272:64:64-i64:64-i128:128-f80:128-n8:16:32:64-S128"
target triple = "x86_64-pc-linux-gnu"

%struct._asn1_ctx_t = type { i32, i32, i8, ptr, ptr, ptr, ptr, ptr, %struct.anon, %struct.anon.2, %struct.anon.3, ptr }
%struct.anon = type { i32, i8, i8, i8, ptr, ptr, i32, i32, ptr, ptr, ptr, %union.anon }
%union.anon = type { %struct.anon.0 }
%struct.anon.0 = type { ptr }
%struct.anon.2 = type { ptr, ptr, ptr }
%struct.anon.3 = type { i32, i8, ptr, i32, i32, ptr, ptr, ptr, %union.anon.4 }
%union.anon.4 = type { %struct.anon.5 }
%struct.anon.5 = type { ptr }
%struct._packet_info = type { ptr, ptr, i32, i32, %struct.nstime_t, %struct.nstime_t, %struct.nstime_t, i8, ptr, ptr, ptr, ptr, %struct._address, %struct._address, %struct._address, %struct._address, %struct._address, %struct._address, i32, ptr, i8, [3 x i8], %struct.anon.7, i32, i32, i32, i32, ptr, i8, ptr, ptr, i16, i16, i32, i32, i16, i32, i32, ptr, ptr, ptr, i8, i8, i16, i16, i16, i32, i16, i16, ptr, ptr, ptr, ptr, ptr, i32, i32 }
%struct.nstime_t = type { i64, i32 }
%struct._address = type { i32, i32, ptr, ptr }
%struct.anon.7 = type { i8, [3 x i8] }

@.str.3 = private unnamed_addr constant [6 x i8] c"Abort\00", align 1
@ett_rtse_RTABapdu = internal global i32 0, align 4

; Function Attrs: null_pointer_is_valid sspstrong uwtable
define hidden i32 @dissect_rtse_RTABapdu(i1 noundef zeroext %0, ptr noundef %1, i32 noundef %2, ptr noundef %3, ptr noundef %4, i32 noundef %5) #0 {
  %7 = alloca i8, align 1
  %8 = alloca ptr, align 8
  %9 = alloca i32, align 4
  %10 = alloca ptr, align 8
  %11 = alloca ptr, align 8
  %12 = alloca i32, align 4
  %13 = zext i1 %0 to i8
  store i8 %13, ptr %7, align 1
  store ptr %1, ptr %8, align 8
  store i32 %2, ptr %9, align 4
  store ptr %3, ptr %10, align 8
  store ptr %4, ptr %11, align 8
  store i32 %5, ptr %12, align 4
  %14 = load ptr, ptr %10, align 8
  %15 = getelementptr inbounds nuw %struct._asn1_ctx_t, ptr %14, i32 0, i32 3
  %16 = load ptr, ptr %15, align 8
  %17 = getelementptr inbounds nuw %struct._packet_info, ptr %16, i32 0, i32 1
  %18 = load ptr, ptr %17, align 8
  call void @col_append_str(ptr noundef %18, i32 noundef 25, ptr noundef @.str.3)
  %19 = load i8, ptr %7, align 1, !range !6, !noundef !7
  %20 = trunc i8 %19 to i1
  %21 = load ptr, ptr %10, align 8
  %22 = load ptr, ptr %11, align 8
  %23 = load ptr, ptr %8, align 8
  %24 = load i32, ptr %9, align 4
  %25 = load i32, ptr %12, align 4
  %26 = load i32, ptr @ett_rtse_RTABapdu, align 4
  %27 = call i32 @dissect_ber_set(i1 noundef zeroext %20, ptr noundef %21, ptr noundef %22, ptr noundef %23, i32 noundef %24, ptr noundef @RTABapdu_set, i32 noundef %25, i32 noundef %26)
  store i32 %27, ptr %9, align 4
  %28 = load i32, ptr %9, align 4
  ret i32 %28
}